target datalayout = "e-m:e-p270:32:32-p271:32:32-p272:64:64-i64:64-i128:128-f80:128-n8:16:32:64-S128"
target triple = "x86_64-pc-linux-gnu"

%struct.FunctionCallInfoBaseData = type { ptr, ptr, ptr, i32, i8, i16, [0 x %struct.NullableDatum] }
%struct.NullableDatum = type { i64, i8 }
%struct.stat = type { i64, i64, i64, i32, i32, i32, i32, i64, i64, i64, i64, %struct.timespec, %struct.timespec, %struct.timespec, [3 x i64] }
%struct.timespec = type { i64, i64 }
%struct.dirent = type { i64, i64, i16, i8, [256 x i8] }
%struct.ReturnSetInfo = type { i32, ptr, ptr, i32, i32, i32, ptr, ptr }

@.str = private unnamed_addr constant [29 x i8] c"could not stat file \22%s\22: %m\00", align 1
@.str.1 = private unnamed_addr constant [10 x i8] c"genfile.c\00", align 1
@.str.16 = private unnamed_addr constant [6 x i8] c"%s/%s\00", align 1
@__func__.pg_ls_dir_files = private unnamed_addr constant [16 x i8] c"pg_ls_dir_files\00", align 1

; Function Attrs: inlinehint nounwind uwtable
define internal i64 @TimestampTzGetDatum(i64 noundef %0) #3 {
  %2 = alloca i64, align 8
  store i64 %0, ptr %2, align 8
  %3 = load i64, ptr %2, align 8
  %4 = call i64 @Int64GetDatum(i64 noundef %3)
  ret i64 %4
}

; Function Attrs: inlinehint nounwind uwtable
define internal i64 @Int64GetDatum(i64 noundef %0) #3 {
  %2 = alloca i64, align 8
  store i64 %0, ptr %2, align 8
  %3 = load i64, ptr %2, align 8
  ret i64 %3
}

; Function Attrs: inlinehint nounwind uwtable
define internal i64 @PointerGetDatum(ptr noundef %0) #3 {
  %2 = alloca ptr, align 8
  store ptr %0, ptr %2, align 8
  %3 = load ptr, ptr %2, align 8
  %4 = ptrtoint ptr %3 to i64
  ret i64 %4
}

; Function Attrs: nounwind uwtable
define internal i64 @pg_ls_dir_files(ptr noundef %0, ptr noundef %1, i1 noundef zeroext %2) #0 {
  %4 = alloca i64, align 8
  %5 = alloca ptr, align 8
  %6 = alloca ptr, align 8
  %7 = alloca i8, align 1
  %8 = alloca ptr, align 8
  %9 = alloca ptr, align 8
  %10 = alloca ptr, align 8
  %11 = alloca i32, align 4
  %12 = alloca [3 x i64], align 16
  %13 = alloca [3 x i8], align 1
  %14 = alloca [2048 x i8], align 16
  %15 = alloca %struct.stat, align 8
  store ptr %0, ptr %5, align 8
  store ptr %1, ptr %6, align 8
  %16 = zext i1 %2 to i8
  store i8 %16, ptr %7, align 1
  call void @llvm.lifetime.start.p0(i64 8, ptr %8) #9
  %17 = load ptr, ptr %5, align 8
  %18 = getelementptr inbounds nuw %struct.FunctionCallInfoBaseData, ptr %17, i32 0, i32 2
  %19 = load ptr, ptr %18, align 8
  store ptr %19, ptr %8, align 8
  call void @llvm.lifetime.start.p0(i64 8, ptr %9) #9
  call void @llvm.lifetime.start.p0(i64 8, ptr %10) #9
  %20 = load ptr, ptr %5, align 8
  call void @InitMaterializedSRF(ptr noundef %20, i32 noundef 0)
  %21 = load ptr, ptr %6, align 8
  %22 = call ptr @AllocateDir(ptr noundef %21)
  store ptr %22, ptr %9, align 8
  %23 = load ptr, ptr %9, align 8
  %24 = icmp ne ptr %23, null
  br i1 %24, label %34, label %25

25:                                               ; preds = %3
  %26 = load i8, ptr %7, align 1, !range !4, !noundef !5
  %27 = trunc i8 %26 to i1
  br i1 %27, label %28, label %33

28:                                               ; preds = %25
  %29 = call ptr @__errno_location() #11
  %30 = load i32, ptr %29, align 4
  %31 = icmp eq i32 %30, 2
  br i1 %31, label %32, label %33

32:                                               ; preds = %28
  store i64 0, ptr %4, align 8
  store i32 1, ptr %11, align 4
  br label %114

33:                                               ; preds = %28, %25
  br label %34

34:                                               ; preds = %33, %3
  br label %35

35:                                               ; preds = %110, %108, %34
  %36 = load ptr, ptr %9, align 8
  %37 = load ptr, ptr %6, align 8
  %38 = call ptr @ReadDir(ptr noundef %36, ptr noundef %37)
  store ptr %38, ptr %10, align 8
  %39 = icmp ne ptr %38, null
  br i1 %39, label %40, label %111

40:                                               ; preds = %35
  call void @llvm.lifetime.start.p0(i64 24, ptr %12) #9
  call void @llvm.lifetime.start.p0(i64 3, ptr %13) #9
  call void @llvm.lifetime.start.p0(i64 2048, ptr %14) #9
  call void @llvm.lifetime.start.p0(i64 144, ptr %15) #9
  %41 = load ptr, ptr %10, align 8
  %42 = getelementptr inbounds nuw %struct.dirent, ptr %41, i32 0, i32 4
  %43 = getelementptr inbounds [256 x i8], ptr %42, i64 0, i64 0
  %44 = load i8, ptr %43, align 1
  %45 = sext i8 %44 to i32
  %46 = icmp eq i32 %45, 46
  br i1 %46, label %47, label %48

47:                                               ; preds = %40
  store i32 2, ptr %11, align 4
  br label %108, !llvm.loop !8

48:                                               ; preds = %40
  %49 = getelementptr inbounds [2048 x i8], ptr %14, i64 0, i64 0
  %50 = load ptr, ptr %6, align 8
  %51 = load ptr, ptr %10, align 8
  %52 = getelementptr inbounds nuw %struct.dirent, ptr %51, i32 0, i32 4
  %53 = getelementptr inbounds [256 x i8], ptr %52, i64 0, i64 0
  %54 = call i32 (ptr, i64, ptr, ...) @pg_snprintf(ptr noundef %49, i64 noundef 2048, ptr noundef @.str.16, ptr noundef %50, ptr noundef %53)
  %55 = getelementptr inbounds [2048 x i8], ptr %14, i64 0, i64 0
  %56 = call i32 @stat(ptr noundef %55, ptr noundef %15) #9
  %57 = icmp slt i32 %56, 0
  br i1 %57, label %58, label %76

58:                                               ; preds = %48
  %59 = call ptr @__errno_location() #11
  %60 = load i32, ptr %59, align 4
  %61 = icmp eq i32 %60, 2
  br i1 %61, label %62, label %63

62:                                               ; preds = %58
  store i32 2, ptr %11, align 4
  br label %108, !llvm.loop !8

63:                                               ; preds = %58
  br label %64

64:                                               ; preds = %63
  br i1 true, label %65, label %67

65:                                               ; preds = %64
  %66 = call zeroext i1 @errstart_cold(i32 noundef 21, ptr noundef null) #10
  br i1 %66, label %69, label %73

67:                                               ; preds = %64
  %68 = call zeroext i1 @errstart(i32 noundef 21, ptr noundef null)
  br i1 %68, label %69, label %73

69:                                               ; preds = %67, %65
  %70 = call i32 @errcode_for_file_access()
  %71 = getelementptr inbounds [2048 x i8], ptr %14, i64 0, i64 0
  %72 = call i32 (ptr, ...) @errmsg(ptr noundef @.str, ptr noundef %71)
  call void @errfinish(ptr noundef @.str.1, i32 noundef 612, ptr noundef @__func__.pg_ls_dir_files)
  br label %73

73:                                               ; preds = %69, %67, %65
  unreachable

74:                                               ; No predecessors!
  br label %75

75:                                               ; preds = %74
  br label %76

76:                                               ; preds = %75, %48
  %77 = getelementptr inbounds nuw %struct.stat, ptr %15, i32 0, i32 3
  %78 = load i32, ptr %77, align 8
  %79 = and i32 %78, 61440
  %80 = icmp eq i32 %79, 32768
  br i1 %80, label %82, label %81

81:                                               ; preds = %76
  store i32 2, ptr %11, align 4
  br label %108, !llvm.loop !8

82:                                               ; preds = %76
  %83 = load ptr, ptr %10, align 8
  %84 = getelementptr inbounds nuw %struct.dirent, ptr %83, i32 0, i32 4
  %85 = getelementptr inbounds [256 x i8], ptr %84, i64 0, i64 0
  %86 = call ptr @cstring_to_text(ptr noundef %85)
  %87 = call i64 @PointerGetDatum(ptr noundef %86)
  %88 = getelementptr inbounds [3 x i64], ptr %12, i64 0, i64 0
  store i64 %87, ptr %88, align 16
  %89 = getelementptr inbounds nuw %struct.stat, ptr %15, i32 0, i32 8
  %90 = load i64, ptr %89, align 8
  %91 = call i64 @Int64GetDatum(i64 noundef %90)
  %92 = getelementptr inbounds [3 x i64], ptr %12, i64 0, i64 1
  store i64 %91, ptr %92, align 8
  %93 = getelementptr inbounds nuw %struct.stat, ptr %15, i32 0, i32 12
  %94 = getelementptr inbounds nuw %struct.timespec, ptr %93, i32 0, i32 0
  %95 = load i64, ptr %94, align 8
  %96 = call i64 @time_t_to_timestamptz(i64 noundef %95)
  %97 = call i64 @TimestampTzGetDatum(i64 noundef %96)
  %98 = getelementptr inbounds [3 x i64], ptr %12, i64 0, i64 2
  store i64 %97, ptr %98, align 16
  %99 = getelementptr inbounds [3 x i8], ptr %13, i64 0, i64 0
  call void @llvm.memset.p0.i64(ptr align 1 %99, i8 0, i64 3, i1 false)
  %100 = load ptr, ptr %8, align 8
  %101 = getelementptr inbounds nuw %struct.ReturnSetInfo, ptr %100, i32 0, i32 6
  %102 = load ptr, ptr %101, align 8
  %103 = load ptr, ptr %8, align 8
  %104 = getelementptr inbounds nuw %struct.ReturnSetInfo, ptr %103, i32 0, i32 7
  %105 = load ptr, ptr %104, align 8
  %106 = getelementptr inbounds [3 x i64], ptr %12, i64 0, i64 0
  %107 = getelementptr inbounds [3 x i8], ptr %13, i64 0, i64 0
  call void @tuplestore_putvalues(ptr noundef %102, ptr noundef %105, ptr noundef %106, ptr noundef %107)
  store i32 0, ptr %11, align 4
  br label %108

108:                                              ; preds = %82, %81, %62, %47
  call void @llvm.lifetime.end.p0(i64 144, ptr %15) #9
  call void @llvm.lifetime.end.p0(i64 2048, ptr %14) #9
  call void @llvm.lifetime.end.p0(i64 3, ptr %13) #9
  call void @llvm.lifetime.end.p0(i64 24, ptr %12) #9
  %109 = load i32, ptr %11, align 4
  switch i32 %109, label %116 [
    i32 0, label %110
    i32 2, label %35
  ]

110:                                              ; preds = %108
  br label %35, !llvm.loop !8

111:                                              ; preds = %35
  %112 = load ptr, ptr %9, align 8
  %113 = call i32 @FreeDir(ptr noundef %112)
  store i64 0, ptr %4, align 8
  store i32 1, ptr %11, align 4
  br label %114

114:                                              ; preds = %111, %32
  call void @llvm.lifetime.end.p0(i64 8, ptr %10) #9
  call void @llvm.lifetime.end.p0(i64 8, ptr %9) #9
  call void @llvm.lifetime.end.p0(i64 8, ptr %8) #9
  %115 = load i64, ptr %4, align 8
  ret i64 %115

116:                                              ; preds = %108
  unreachable
}