; Function Attrs: nounwind uwtable
define internal fastcc void @pg_ls_dir_files(ptr noundef %0, ptr noundef %1, i1 noundef zeroext %2) unnamed_addr #0 {
  %4 = alloca [3 x i64], align 16
  %5 = alloca [3 x i8], align 1
  %6 = alloca [2048 x i8], align 16
  %7 = alloca %struct.stat, align 8
  %8 = getelementptr inbounds nuw i8, ptr %0, i64 16
  %9 = load ptr, ptr %8, align 8
  tail call void @InitMaterializedSRF(ptr noundef %0, i32 noundef 0) #9
  %10 = tail call ptr @AllocateDir(ptr noundef %1) #9
  %.not = icmp eq ptr %10, null
  %brmerge.not = and i1 %2, %.not
  br i1 %brmerge.not, label %11, label %15

11:                                               ; preds = %3
  %12 = tail call ptr @__errno_location() #11
  %13 = load i32, ptr %12, align 4
  %14 = icmp eq i32 %13, 2
  br i1 %14, label %56, label %15

15:                                               ; preds = %3, %11
  %16 = tail call ptr @ReadDir(ptr noundef %10, ptr noundef %1) #9
  %.not1416 = icmp eq ptr %16, null
  br i1 %.not1416, label %._crit_edge, label %.lr.ph

.lr.ph:                                           ; preds = %15
  %17 = getelementptr inbounds nuw i8, ptr %7, i64 24
  %18 = getelementptr inbounds nuw i8, ptr %7, i64 48
  %19 = getelementptr inbounds nuw i8, ptr %4, i64 8
  %20 = getelementptr inbounds nuw i8, ptr %7, i64 88
  %21 = getelementptr inbounds nuw i8, ptr %4, i64 16
  %22 = getelementptr inbounds nuw i8, ptr %9, i64 40
  %23 = getelementptr inbounds nuw i8, ptr %9, i64 48
  br label %24

24:                                               ; preds = %.lr.ph, %53
  %25 = phi ptr [ %16, %.lr.ph ], [ %54, %53 ]
  call void @llvm.lifetime.start.p0(i64 24, ptr nonnull %4) #9
  call void @llvm.lifetime.start.p0(i64 3, ptr nonnull %5) #9
  call void @llvm.lifetime.start.p0(i64 2048, ptr nonnull %6) #9
  call void @llvm.lifetime.start.p0(i64 144, ptr nonnull %7) #9
  %26 = getelementptr inbounds nuw i8, ptr %25, i64 19
  %27 = load i8, ptr %26, align 1
  %28 = icmp eq i8 %27, 46
  br i1 %28, label %53, label %29, !llvm.loop !8

29:                                               ; preds = %24
  %30 = call i32 (ptr, i64, ptr, ...) @pg_snprintf(ptr noundef nonnull %6, i64 noundef 2048, ptr noundef nonnull @.str.16, ptr noundef %1, ptr noundef nonnull %26) #9
  %31 = call i32 @stat(ptr noundef nonnull %6, ptr noundef nonnull %7) #9
  %32 = icmp slt i32 %31, 0
  br i1 %32, label %33, label %41

33:                                               ; preds = %29
  %34 = tail call ptr @__errno_location() #11
  %35 = load i32, ptr %34, align 4
  %36 = icmp eq i32 %35, 2
  br i1 %36, label %53, label %37, !llvm.loop !8

37:                                               ; preds = %33
  %38 = call zeroext i1 @errstart_cold(i32 noundef 21, ptr noundef null) #10
  call void @llvm.assume(i1 %38)
  %39 = call i32 @errcode_for_file_access() #9
  %40 = call i32 (ptr, ...) @errmsg(ptr noundef nonnull @.str, ptr noundef nonnull %6) #9
  call void @errfinish(ptr noundef nonnull @.str.1, i32 noundef 612, ptr noundef nonnull @__func__.pg_ls_dir_files) #9
  unreachable

41:                                               ; preds = %29
  %42 = load i32, ptr %17, align 8
  %43 = and i32 %42, 61440
  %44 = icmp eq i32 %43, 32768
  br i1 %44, label %45, label %53, !llvm.loop !8

45:                                               ; preds = %41
  %46 = call ptr @cstring_to_text(ptr noundef nonnull %26) #9
  %47 = ptrtoint ptr %46 to i64
  store i64 %47, ptr %4, align 16
  %48 = load i64, ptr %18, align 8
  store i64 %48, ptr %19, align 8
  %49 = load i64, ptr %20, align 8
  %50 = call i64 @time_t_to_timestamptz(i64 noundef %49) #9
  store i64 %50, ptr %21, align 16
  call void @llvm.memset.p0.i64(ptr noundef nonnull align 1 dereferenceable(3) %5, i8 0, i64 3, i1 false)
  %51 = load ptr, ptr %22, align 8
  %52 = load ptr, ptr %23, align 8
  call void @tuplestore_putvalues(ptr noundef %51, ptr noundef %52, ptr noundef nonnull %4, ptr noundef nonnull %5) #9
  br label %53

53:                                               ; preds = %41, %33, %24, %45
  call void @llvm.lifetime.end.p0(i64 144, ptr nonnull %7) #9
  call void @llvm.lifetime.end.p0(i64 2048, ptr nonnull %6) #9
  call void @llvm.lifetime.end.p0(i64 3, ptr nonnull %5) #9
  call void @llvm.lifetime.end.p0(i64 24, ptr nonnull %4) #9
  %54 = call ptr @ReadDir(ptr noundef %10, ptr noundef %1) #9
  %.not14 = icmp eq ptr %54, null
  br i1 %.not14, label %._crit_edge, label %24

._crit_edge:                                      ; preds = %53, %15
  %55 = call i32 @FreeDir(ptr noundef %10) #9
  br label %56

56:                                               ; preds = %11, %._crit_edge
  ret void
}